target datalayout = "e-m:e-p270:32:32-p271:32:32-p272:64:64-i64:64-i128:128-f80:128-n8:16:32:64-S128"
target triple = "x86_64-pc-linux-gnu"

%struct._variable = type { ptr, ptr, ptr, ptr, ptr }

@.str.11 = private unnamed_addr constant [11 x i8] c"%s = '%s'\0A\00", align 1
@cancel_pressed = external global i32, align 4

; Function Attrs: nounwind uwtable
define dso_local void @PrintVariables(ptr noundef %0) #0 {
  %2 = alloca ptr, align 8
  %3 = alloca ptr, align 8
  %4 = alloca i32, align 4
  store ptr %0, ptr %2, align 8
  call void @llvm.lifetime.start.p0(i64 8, ptr %3) #6
  %5 = load ptr, ptr %2, align 8
  %6 = icmp ne ptr %5, null
  br i1 %6, label %8, label %7

7:                                                ; preds = %1
  store i32 1, ptr %4, align 4
  br label %38

8:                                                ; preds = %1
  %9 = load ptr, ptr %2, align 8
  %10 = getelementptr inbounds nuw %struct._variable, ptr %9, i32 0, i32 4
  %11 = load ptr, ptr %10, align 8
  store ptr %11, ptr %3, align 8
  br label %12

12:                                               ; preds = %33, %8
  %13 = load ptr, ptr %3, align 8
  %14 = icmp ne ptr %13, null
  br i1 %14, label %15, label %37

15:                                               ; preds = %12
  %16 = load ptr, ptr %3, align 8
  %17 = getelementptr inbounds nuw %struct._variable, ptr %16, i32 0, i32 1
  %18 = load ptr, ptr %17, align 8
  %19 = icmp ne ptr %18, null
  br i1 %19, label %20, label %28

20:                                               ; preds = %15
  %21 = load ptr, ptr %3, align 8
  %22 = getelementptr inbounds nuw %struct._variable, ptr %21, i32 0, i32 0
  %23 = load ptr, ptr %22, align 8
  %24 = load ptr, ptr %3, align 8
  %25 = getelementptr inbounds nuw %struct._variable, ptr %24, i32 0, i32 1
  %26 = load ptr, ptr %25, align 8
  %27 = call i32 (ptr, ...) @pg_printf(ptr noundef @.str.11, ptr noundef %23, ptr noundef %26)
  br label %28

28:                                               ; preds = %20, %15
  %29 = load volatile i32, ptr @cancel_pressed, align 4
  %30 = icmp ne i32 %29, 0
  br i1 %30, label %31, label %32

31:                                               ; preds = %28
  br label %37

32:                                               ; preds = %28
  br label %33

33:                                               ; preds = %32
  %34 = load ptr, ptr %3, align 8
  %35 = getelementptr inbounds nuw %struct._variable, ptr %34, i32 0, i32 4
  %36 = load ptr, ptr %35, align 8
  store ptr %36, ptr %3, align 8
  br label %12, !llvm.loop !8

37:                                               ; preds = %31, %12
  store i32 0, ptr %4, align 4
  br label %38

38:                                               ; preds = %37, %7
  call void @llvm.lifetime.end.p0(i64 8, ptr %3) #6
  %39 = load i32, ptr %4, align 4
  switch i32 %39, label %41 [
    i32 0, label %40
    i32 1, label %40
  ]

40:                                               ; preds = %38, %38
  ret void

41:                                               ; preds = %38
  unreachable
}