; Function Attrs: nounwind uwtable
define dso_local void @PrintVariables(ptr noundef readonly captures(address_is_null) %0) local_unnamed_addr #0 {
  %.not = icmp eq ptr %0, null
  br i1 %.not, label %.loopexit, label %.preheader

.preheader:                                       ; preds = %1, %8
  %.pn = phi ptr [ %.0, %8 ], [ %0, %1 ]
  %.0.in = getelementptr inbounds nuw i8, ptr %.pn, i64 32
  %.0 = load ptr, ptr %.0.in, align 8
  %.not9 = icmp eq ptr %.0, null
  br i1 %.not9, label %.loopexit, label %2

2:                                                ; preds = %.preheader
  %3 = getelementptr inbounds nuw i8, ptr %.0, i64 8
  %4 = load ptr, ptr %3, align 8
  %.not10 = icmp eq ptr %4, null
  br i1 %.not10, label %8, label %5

5:                                                ; preds = %2
  %6 = load ptr, ptr %.0, align 8
  %7 = tail call i32 (ptr, ...) @pg_printf(ptr noundef nonnull @.str.11, ptr noundef %6, ptr noundef nonnull %4) #11
  br label %8

8:                                                ; preds = %5, %2
  %9 = load volatile i32, ptr @cancel_pressed, align 4
  %.not11 = icmp eq i32 %9, 0
  br i1 %.not11, label %.preheader, label %.loopexit, !llvm.loop !4

.loopexit:                                        ; preds = %.preheader, %8, %1
  ret void
}